; Function Attrs: mustprogress nofree norecurse nosync nounwind willreturn memory(argmem: read) uwtable
define noundef float @_ZN3gmx10lincs_rmsdEPKNS_5LincsE(ptr noundef readonly captures(none) %0) local_unnamed_addr #0 {
  %2 = getelementptr inbounds nuw i8, ptr %0, i64 648
  %3 = load i8, ptr %2, align 8, !tbaa !4, !range !9, !noundef !10
  %4 = trunc nuw i8 %3 to i1
  br i1 %4, label %_ZNKRSt8optionalIdE5valueEv.exit, label %8

_ZNKRSt8optionalIdE5valueEv.exit:                 ; preds = %1
  %5 = getelementptr inbounds nuw i8, ptr %0, i64 640
  %6 = load double, ptr %5, align 8, !tbaa !11
  %7 = fptrunc double %6 to float
  br label %8

8:                                                ; preds = %1, %_ZNKRSt8optionalIdE5valueEv.exit
  %.0 = phi float [ %7, %_ZNKRSt8optionalIdE5valueEv.exit ], [ 0.000000e+00, %1 ]
  ret float %.0
}